; Function Attrs: nounwind uwtable
define void @Acec_BoxFree(ptr noundef captures(none) %0) local_unnamed_addr #0 {
  %2 = getelementptr inbounds nuw i8, ptr %0, i64 8
  %3 = load ptr, ptr %2, align 8
  %4 = icmp eq ptr %3, null
  br i1 %4, label %Vec_WecFreeP.exit, label %5

5:                                                ; preds = %1
  %6 = load i32, ptr %3, align 8
  %7 = icmp sgt i32 %6, 0
  br i1 %7, label %.lr.ph.i.i.i, label %._crit_edge.i.i.i

.lr.ph.i.i.i:                                     ; preds = %5
  %8 = getelementptr inbounds nuw i8, ptr %3, i64 8
  br label %9

9:                                                ; preds = %17, %.lr.ph.i.i.i
  %10 = phi i32 [ %6, %.lr.ph.i.i.i ], [ %18, %17 ]
  %indvars.iv.i.i.i = phi i64 [ 0, %.lr.ph.i.i.i ], [ %indvars.iv.next.i.i.i, %17 ]
  %11 = load ptr, ptr %8, align 8
  %12 = getelementptr inbounds nuw %struct.Vec_Int_t_, ptr %11, i64 %indvars.iv.i.i.i, i32 2
  %13 = load ptr, ptr %12, align 8
  %.not15.i.i.i = icmp eq ptr %13, null
  br i1 %.not15.i.i.i, label %17, label %14

14:                                               ; preds = %9
  tail call void @free(ptr noundef nonnull %13) #21
  %15 = load ptr, ptr %8, align 8
  %16 = getelementptr inbounds nuw %struct.Vec_Int_t_, ptr %15, i64 %indvars.iv.i.i.i, i32 2
  store ptr null, ptr %16, align 8
  %.pre.i.i.i = load i32, ptr %3, align 8
  br label %17

17:                                               ; preds = %14, %9
  %18 = phi i32 [ %.pre.i.i.i, %14 ], [ %10, %9 ]
  %indvars.iv.next.i.i.i = add nuw nsw i64 %indvars.iv.i.i.i, 1
  %19 = sext i32 %18 to i64
  %20 = icmp slt i64 %indvars.iv.next.i.i.i, %19
  br i1 %20, label %9, label %._crit_edge.i.i.i, !llvm.loop !4

._crit_edge.i.i.i:                                ; preds = %17, %5
  %21 = getelementptr inbounds nuw i8, ptr %3, i64 8
  %22 = load ptr, ptr %21, align 8
  %.not.i.i.i = icmp eq ptr %22, null
  br i1 %.not.i.i.i, label %Vec_WecFree.exit.i, label %23

23:                                               ; preds = %._crit_edge.i.i.i
  tail call void @free(ptr noundef nonnull %22) #21
  br label %Vec_WecFree.exit.i

Vec_WecFree.exit.i:                               ; preds = %23, %._crit_edge.i.i.i
  tail call void @free(ptr noundef nonnull %3) #21
  store ptr null, ptr %2, align 8
  br label %Vec_WecFreeP.exit

Vec_WecFreeP.exit:                                ; preds = %1, %Vec_WecFree.exit.i
  %24 = getelementptr inbounds nuw i8, ptr %0, i64 16
  %25 = load ptr, ptr %24, align 8
  %26 = icmp eq ptr %25, null
  br i1 %26, label %Vec_WecFreeP.exit15, label %27

27:                                               ; preds = %Vec_WecFreeP.exit
  %28 = load i32, ptr %25, align 8
  %29 = icmp sgt i32 %28, 0
  br i1 %29, label %.lr.ph.i.i.i10, label %._crit_edge.i.i.i7

.lr.ph.i.i.i10:                                   ; preds = %27
  %30 = getelementptr inbounds nuw i8, ptr %25, i64 8
  br label %31

31:                                               ; preds = %39, %.lr.ph.i.i.i10
  %32 = phi i32 [ %28, %.lr.ph.i.i.i10 ], [ %40, %39 ]
  %indvars.iv.i.i.i11 = phi i64 [ 0, %.lr.ph.i.i.i10 ], [ %indvars.iv.next.i.i.i14, %39 ]
  %33 = load ptr, ptr %30, align 8
  %34 = getelementptr inbounds nuw %struct.Vec_Int_t_, ptr %33, i64 %indvars.iv.i.i.i11, i32 2
  %35 = load ptr, ptr %34, align 8
  %.not15.i.i.i12 = icmp eq ptr %35, null
  br i1 %.not15.i.i.i12, label %39, label %36

36:                                               ; preds = %31
  tail call void @free(ptr noundef nonnull %35) #21
  %37 = load ptr, ptr %30, align 8
  %38 = getelementptr inbounds nuw %struct.Vec_Int_t_, ptr %37, i64 %indvars.iv.i.i.i11, i32 2
  store ptr null, ptr %38, align 8
  %.pre.i.i.i13 = load i32, ptr %25, align 8
  br label %39

39:                                               ; preds = %36, %31
  %40 = phi i32 [ %.pre.i.i.i13, %36 ], [ %32, %31 ]
  %indvars.iv.next.i.i.i14 = add nuw nsw i64 %indvars.iv.i.i.i11, 1
  %41 = sext i32 %40 to i64
  %42 = icmp slt i64 %indvars.iv.next.i.i.i14, %41
  br i1 %42, label %31, label %._crit_edge.i.i.i7, !llvm.loop !4

._crit_edge.i.i.i7:                               ; preds = %39, %27
  %43 = getelementptr inbounds nuw i8, ptr %25, i64 8
  %44 = load ptr, ptr %43, align 8
  %.not.i.i.i8 = icmp eq ptr %44, null
  br i1 %.not.i.i.i8, label %Vec_WecFree.exit.i9, label %45

45:                                               ; preds = %._crit_edge.i.i.i7
  tail call void @free(ptr noundef nonnull %44) #21
  br label %Vec_WecFree.exit.i9

Vec_WecFree.exit.i9:                              ; preds = %45, %._crit_edge.i.i.i7
  tail call void @free(ptr noundef nonnull %25) #21
  store ptr null, ptr %24, align 8
  br label %Vec_WecFreeP.exit15

Vec_WecFreeP.exit15:                              ; preds = %Vec_WecFreeP.exit, %Vec_WecFree.exit.i9
  %46 = getelementptr inbounds nuw i8, ptr %0, i64 24
  %47 = load ptr, ptr %46, align 8
  %48 = icmp eq ptr %47, null
  br i1 %48, label %Vec_WecFreeP.exit24, label %49

49:                                               ; preds = %Vec_WecFreeP.exit15
  %50 = load i32, ptr %47, align 8
  %51 = icmp sgt i32 %50, 0
  br i1 %51, label %.lr.ph.i.i.i19, label %._crit_edge.i.i.i16

.lr.ph.i.i.i19:                                   ; preds = %49
  %52 = getelementptr inbounds nuw i8, ptr %47, i64 8
  br label %53

53:                                               ; preds = %61, %.lr.ph.i.i.i19
  %54 = phi i32 [ %50, %.lr.ph.i.i.i19 ], [ %62, %61 ]
  %indvars.iv.i.i.i20 = phi i64 [ 0, %.lr.ph.i.i.i19 ], [ %indvars.iv.next.i.i.i23, %61 ]
  %55 = load ptr, ptr %52, align 8
  %56 = getelementptr inbounds nuw %struct.Vec_Int_t_, ptr %55, i64 %indvars.iv.i.i.i20, i32 2
  %57 = load ptr, ptr %56, align 8
  %.not15.i.i.i21 = icmp eq ptr %57, null
  br i1 %.not15.i.i.i21, label %61, label %58

58:                                               ; preds = %53
  tail call void @free(ptr noundef nonnull %57) #21
  %59 = load ptr, ptr %52, align 8
  %60 = getelementptr inbounds nuw %struct.Vec_Int_t_, ptr %59, i64 %indvars.iv.i.i.i20, i32 2
  store ptr null, ptr %60, align 8
  %.pre.i.i.i22 = load i32, ptr %47, align 8
  br label %61

61:                                               ; preds = %58, %53
  %62 = phi i32 [ %.pre.i.i.i22, %58 ], [ %54, %53 ]
  %indvars.iv.next.i.i.i23 = add nuw nsw i64 %indvars.iv.i.i.i20, 1
  %63 = sext i32 %62 to i64
  %64 = icmp slt i64 %indvars.iv.next.i.i.i23, %63
  br i1 %64, label %53, label %._crit_edge.i.i.i16, !llvm.loop !4

._crit_edge.i.i.i16:                              ; preds = %61, %49
  %65 = getelementptr inbounds nuw i8, ptr %47, i64 8
  %66 = load ptr, ptr %65, align 8
  %.not.i.i.i17 = icmp eq ptr %66, null
  br i1 %.not.i.i.i17, label %Vec_WecFree.exit.i18, label %67

67:                                               ; preds = %._crit_edge.i.i.i16
  tail call void @free(ptr noundef nonnull %66) #21
  br label %Vec_WecFree.exit.i18

Vec_WecFree.exit.i18:                             ; preds = %67, %._crit_edge.i.i.i16
  tail call void @free(ptr noundef nonnull %47) #21
  store ptr null, ptr %46, align 8
  br label %Vec_WecFreeP.exit24

Vec_WecFreeP.exit24:                              ; preds = %Vec_WecFreeP.exit15, %Vec_WecFree.exit.i18
  %68 = getelementptr inbounds nuw i8, ptr %0, i64 40
  %69 = load ptr, ptr %68, align 8
  %70 = icmp eq ptr %69, null
  br i1 %70, label %Vec_WecFreeP.exit33, label %71

71:                                               ; preds = %Vec_WecFreeP.exit24
  %72 = load i32, ptr %69, align 8
  %73 = icmp sgt i32 %72, 0
  br i1 %73, label %.lr.ph.i.i.i28, label %._crit_edge.i.i.i25

.lr.ph.i.i.i28:                                   ; preds = %71
  %74 = getelementptr inbounds nuw i8, ptr %69, i64 8
  br label %75

75:                                               ; preds = %83, %.lr.ph.i.i.i28
  %76 = phi i32 [ %72, %.lr.ph.i.i.i28 ], [ %84, %83 ]
  %indvars.iv.i.i.i29 = phi i64 [ 0, %.lr.ph.i.i.i28 ], [ %indvars.iv.next.i.i.i32, %83 ]
  %77 = load ptr, ptr %74, align 8
  %78 = getelementptr inbounds nuw %struct.Vec_Int_t_, ptr %77, i64 %indvars.iv.i.i.i29, i32 2
  %79 = load ptr, ptr %78, align 8
  %.not15.i.i.i30 = icmp eq ptr %79, null
  br i1 %.not15.i.i.i30, label %83, label %80

80:                                               ; preds = %75
  tail call void @free(ptr noundef nonnull %79) #21
  %81 = load ptr, ptr %74, align 8
  %82 = getelementptr inbounds nuw %struct.Vec_Int_t_, ptr %81, i64 %indvars.iv.i.i.i29, i32 2
  store ptr null, ptr %82, align 8
  %.pre.i.i.i31 = load i32, ptr %69, align 8
  br label %83

83:                                               ; preds = %80, %75
  %84 = phi i32 [ %.pre.i.i.i31, %80 ], [ %76, %75 ]
  %indvars.iv.next.i.i.i32 = add nuw nsw i64 %indvars.iv.i.i.i29, 1
  %85 = sext i32 %84 to i64
  %86 = icmp slt i64 %indvars.iv.next.i.i.i32, %85
  br i1 %86, label %75, label %._crit_edge.i.i.i25, !llvm.loop !4

._crit_edge.i.i.i25:                              ; preds = %83, %71
  %87 = getelementptr inbounds nuw i8, ptr %69, i64 8
  %88 = load ptr, ptr %87, align 8
  %.not.i.i.i26 = icmp eq ptr %88, null
  br i1 %.not.i.i.i26, label %Vec_WecFree.exit.i27, label %89

89:                                               ; preds = %._crit_edge.i.i.i25
  tail call void @free(ptr noundef nonnull %88) #21
  br label %Vec_WecFree.exit.i27

Vec_WecFree.exit.i27:                             ; preds = %89, %._crit_edge.i.i.i25
  tail call void @free(ptr noundef nonnull %69) #21
  store ptr null, ptr %68, align 8
  br label %Vec_WecFreeP.exit33

Vec_WecFreeP.exit33:                              ; preds = %Vec_WecFreeP.exit24, %Vec_WecFree.exit.i27
  %90 = getelementptr inbounds nuw i8, ptr %0, i64 32
  %91 = load ptr, ptr %90, align 8
  %92 = icmp eq ptr %91, null
  br i1 %92, label %112, label %93

93:                                               ; preds = %Vec_WecFreeP.exit33
  %94 = load i32, ptr %91, align 8
  %95 = icmp sgt i32 %94, 0
  br i1 %95, label %.lr.ph.i.i.i37, label %._crit_edge.i.i.i34

.lr.ph.i.i.i37:                                   ; preds = %93
  %96 = getelementptr inbounds nuw i8, ptr %91, i64 8
  br label %97

97:                                               ; preds = %105, %.lr.ph.i.i.i37
  %98 = phi i32 [ %94, %.lr.ph.i.i.i37 ], [ %106, %105 ]
  %indvars.iv.i.i.i38 = phi i64 [ 0, %.lr.ph.i.i.i37 ], [ %indvars.iv.next.i.i.i41, %105 ]
  %99 = load ptr, ptr %96, align 8
  %100 = getelementptr inbounds nuw %struct.Vec_Int_t_, ptr %99, i64 %indvars.iv.i.i.i38, i32 2
  %101 = load ptr, ptr %100, align 8
  %.not15.i.i.i39 = icmp eq ptr %101, null
  br i1 %.not15.i.i.i39, label %105, label %102

102:                                              ; preds = %97
  tail call void @free(ptr noundef nonnull %101) #21
  %103 = load ptr, ptr %96, align 8
  %104 = getelementptr inbounds nuw %struct.Vec_Int_t_, ptr %103, i64 %indvars.iv.i.i.i38, i32 2
  store ptr null, ptr %104, align 8
  %.pre.i.i.i40 = load i32, ptr %91, align 8
  br label %105

105:                                              ; preds = %102, %97
  %106 = phi i32 [ %.pre.i.i.i40, %102 ], [ %98, %97 ]
  %indvars.iv.next.i.i.i41 = add nuw nsw i64 %indvars.iv.i.i.i38, 1
  %107 = sext i32 %106 to i64
  %108 = icmp slt i64 %indvars.iv.next.i.i.i41, %107
  br i1 %108, label %97, label %._crit_edge.i.i.i34, !llvm.loop !4

._crit_edge.i.i.i34:                              ; preds = %105, %93
  %109 = getelementptr inbounds nuw i8, ptr %91, i64 8
  %110 = load ptr, ptr %109, align 8
  %.not.i.i.i35 = icmp eq ptr %110, null
  br i1 %.not.i.i.i35, label %Vec_WecFree.exit.i36, label %111

111:                                              ; preds = %._crit_edge.i.i.i34
  tail call void @free(ptr noundef nonnull %110) #21
  br label %Vec_WecFree.exit.i36

Vec_WecFree.exit.i36:                             ; preds = %111, %._crit_edge.i.i.i34
  tail call void @free(ptr noundef nonnull %91) #21
  br label %112

112:                                              ; preds = %Vec_WecFreeP.exit33, %Vec_WecFree.exit.i36
  tail call void @free(ptr noundef nonnull %0) #21
  ret void
}